; Function Attrs: mustprogress uwtable
define void @_ZN9grpc_core17LbCostBinMetadata12ParseMementoENS_5SliceEbN4absl12lts_2023080211FunctionRefIFvSt17basic_string_viewIcSt11char_traitsIcEERKS1_EEE(ptr noalias sret(%"struct.grpc_core::LbCostBinMetadata::ValueType") align 8 %agg.result, ptr noundef %value, i1 noundef zeroext %0, ptr %on_error.coerce0, ptr nocapture readonly %on_error.coerce1) local_unnamed_addr #3 align 2 personality ptr @__gxx_personality_v0 {
entry:
  %ref.tmp = alloca %"class.std::allocator", align 1
  %ref.tmp5 = alloca %"class.std::__cxx11::basic_string", align 8
  %ref.tmp10 = alloca %"class.std::allocator", align 1
  %1 = load ptr, ptr %value, align 8
  %tobool.not.i.i = icmp eq ptr %1, null
  %data.i.i = getelementptr inbounds i8, ptr %value, i64 8
  %2 = load i64, ptr %data.i.i, align 8
  %conv.i.i = and i64 %2, 248
  %cond.i.i = select i1 %tobool.not.i.i, i64 %conv.i.i, i64 %2
  %cmp = icmp ult i64 %cond.i.i, 8
  br i1 %cmp, label %if.then, label %if.end

if.then:                                          ; preds = %entry
  tail call void %on_error.coerce1(ptr %on_error.coerce0, i64 9, ptr nonnull @.str.21, ptr noundef nonnull align 8 dereferenceable(32) %value)
  store double 0.000000e+00, ptr %agg.result, align 8
  %name = getelementptr inbounds i8, ptr %agg.result, i64 8
  call void @_ZNSaIcEC1Ev(ptr noundef nonnull align 1 dereferenceable(1) %ref.tmp) #18
  %call.i3 = invoke noundef ptr @_ZNSt7__cxx1112basic_stringIcSt11char_traitsIcESaIcEE13_M_local_dataEv(ptr noundef nonnull align 8 dereferenceable(32) %name)
          to label %call.i.noexc unwind label %lpad

call.i.noexc:                                     ; preds = %if.then
  invoke void @_ZNSt7__cxx1112basic_stringIcSt11char_traitsIcESaIcEE12_Alloc_hiderC1EPcRKS3_(ptr noundef nonnull align 8 dereferenceable(8) %name, ptr noundef %call.i3, ptr noundef nonnull align 1 dereferenceable(1) %ref.tmp)
          to label %.noexc unwind label %lpad

.noexc:                                           ; preds = %call.i.noexc
  invoke void @_ZNSt7__cxx1112basic_stringIcSt11char_traitsIcESaIcEE12_M_constructIPKcEEvT_S8_St20forward_iterator_tag(ptr noundef nonnull align 8 dereferenceable(32) %name, ptr noundef nonnull @.str.7, ptr noundef nonnull @.str.7)
          to label %return unwind label %lpad.i

lpad.i:                                           ; preds = %.noexc
  %3 = landingpad { ptr, i32 }
          cleanup
  call void @_ZNSaIcED2Ev(ptr noundef nonnull align 1 dereferenceable(1) %name) #18
  br label %lpad.body

lpad:                                             ; preds = %call.i.noexc, %if.then
  %4 = landingpad { ptr, i32 }
          cleanup
  br label %lpad.body

lpad.body:                                        ; preds = %lpad.i, %lpad
  %eh.lpad-body = phi { ptr, i32 } [ %4, %lpad ], [ %3, %lpad.i ]
  call void @_ZNSaIcED1Ev(ptr noundef nonnull align 1 dereferenceable(1) %ref.tmp) #18
  br label %eh.resume

if.end:                                           ; preds = %entry
  %name.i = getelementptr inbounds i8, ptr %agg.result, i64 8
  tail call void @_ZNSt7__cxx1112basic_stringIcSt11char_traitsIcESaIcEEC1Ev(ptr noundef nonnull align 8 dereferenceable(32) %name.i) #18
  %5 = load ptr, ptr %value, align 8
  %tobool.not.i = icmp eq ptr %5, null
  %bytes.i = getelementptr inbounds i8, ptr %value, i64 16
  %6 = load ptr, ptr %bytes.i, align 8
  %bytes5.i = getelementptr inbounds i8, ptr %value, i64 9
  %cond.i = select i1 %tobool.not.i, ptr %bytes5.i, ptr %6
  %7 = load i64, ptr %cond.i, align 1
  store i64 %7, ptr %agg.result, align 8
  %add.ptr = getelementptr inbounds i8, ptr %cond.i, i64 8
  %8 = load i64, ptr %data.i.i, align 8
  %conv.i.i10 = and i64 %8, 255
  %cond.i.i11 = select i1 %tobool.not.i, i64 %conv.i.i10, i64 %8
  %sub = add i64 %cond.i.i11, -8
  call void @_ZNSaIcEC1Ev(ptr noundef nonnull align 1 dereferenceable(1) %ref.tmp10) #18
  invoke void @_ZNSt7__cxx1112basic_stringIcSt11char_traitsIcESaIcEEC1EPKcmRKS3_(ptr noundef nonnull align 8 dereferenceable(32) %ref.tmp5, ptr noundef nonnull %add.ptr, i64 noundef %sub, ptr noundef nonnull align 1 dereferenceable(1) %ref.tmp10)
          to label %invoke.cont12 unwind label %lpad11

invoke.cont12:                                    ; preds = %if.end
  %call14 = call noundef nonnull align 8 dereferenceable(32) ptr @_ZNSt7__cxx1112basic_stringIcSt11char_traitsIcESaIcEEaSEOS4_(ptr noundef nonnull align 8 dereferenceable(32) %name.i, ptr noundef nonnull align 8 dereferenceable(32) %ref.tmp5) #18
  call void @_ZNSt7__cxx1112basic_stringIcSt11char_traitsIcESaIcEED1Ev(ptr noundef nonnull align 8 dereferenceable(32) %ref.tmp5) #18
  br label %return

lpad11:                                           ; preds = %if.end
  %9 = landingpad { ptr, i32 }
          cleanup
  call void @_ZNSaIcED1Ev(ptr noundef nonnull align 1 dereferenceable(1) %ref.tmp10) #18
  call void @_ZNSt7__cxx1112basic_stringIcSt11char_traitsIcESaIcEED1Ev(ptr noundef nonnull align 8 dereferenceable(32) %name.i) #18
  br label %eh.resume

return:                                           ; preds = %.noexc, %invoke.cont12
  %ref.tmp10.sink = phi ptr [ %ref.tmp10, %invoke.cont12 ], [ %ref.tmp, %.noexc ]
  call void @_ZNSaIcED1Ev(ptr noundef nonnull align 1 dereferenceable(1) %ref.tmp10.sink) #18
  ret void

eh.resume:                                        ; preds = %lpad11, %lpad.body
  %.pn = phi { ptr, i32 } [ %eh.lpad-body, %lpad.body ], [ %9, %lpad11 ]
  resume { ptr, i32 } %.pn
}